; Function Attrs: mustprogress nounwind uwtable
define internal fastcc void @_ZN6hermes6ESTree24RecursiveVisitorDispatchINS_12_GLOBAL__N_119DependencyExtractorELb1EE13visitChildrenERS3_PNS0_22ObjectTypePropertyNodeE(ptr noundef nonnull align 8 dereferenceable(145) %v, ptr nocapture noundef readonly %node) unnamed_addr #0 align 2 {
entry:
  %_key = getelementptr inbounds i8, ptr %node, i64 48
  %0 = load ptr, ptr %_key, align 8
  tail call fastcc void @_ZN6hermes6ESTree24RecursiveVisitorDispatchINS_12_GLOBAL__N_119DependencyExtractorELb1EE5visitERS3_PNS0_4NodeES7_(ptr noundef nonnull align 8 dereferenceable(145) %v, ptr noundef %0)
  %_value = getelementptr inbounds i8, ptr %node, i64 56
  %1 = load ptr, ptr %_value, align 8
  tail call fastcc void @_ZN6hermes6ESTree24RecursiveVisitorDispatchINS_12_GLOBAL__N_119DependencyExtractorELb1EE5visitERS3_PNS0_4NodeES7_(ptr noundef nonnull align 8 dereferenceable(145) %v, ptr noundef %1)
  %_variance = getelementptr inbounds i8, ptr %node, i64 72
  %2 = load ptr, ptr %_variance, align 8
  tail call fastcc void @_ZN6hermes6ESTree24RecursiveVisitorDispatchINS_12_GLOBAL__N_119DependencyExtractorELb1EE5visitERS3_PNS0_4NodeES7_(ptr noundef nonnull align 8 dereferenceable(145) %v, ptr noundef %2)
  ret void
}